#include <math.h>
#include <stdio.h>
#include <stdlib.h>
#include <string.h>

int main()
{
  int i,j,n;
  char s[1111],d;
  scanf("%d",&n);
  for(j=0;j<n;j++)
  {
    scanf("%s",s);
    for(i=0;s[i]!='\0';i++)
    {
      if(s[i]=='A')
      {
        d='T';
      }
      if(s[i]=='T')
      {
        d='A';
      }
      if(s[i]=='C')
      {
        d='G';
      }
      if(s[i]=='G')
      {
        d='C';
      }
      s[i]=d;
    }
    printf("%s\n",s);
  }
  return 0;
}

