; ModuleID = 'source-C-CXX/32/531.c'
source_filename = "source-C-CXX/32/531.c"
target datalayout = "e-m:e-p270:32:32-p271:32:32-p272:64:64-i64:64-f80:128-n8:16:32:64-S128"
target triple = "x86_64-pc-linux-gnu"

@.str = private unnamed_addr constant [3 x i8] c"%d\00", align 1
@.str.1 = private unnamed_addr constant [3 x i8] c"%s\00", align 1

; Function Attrs: nofree nounwind sspstrong uwtable
define dso_local i32 @main() local_unnamed_addr #0 {
  %1 = alloca i32, align 4
  %2 = alloca [1111 x i8], align 16
  %3 = bitcast i32* %1 to i8*
  call void @llvm.lifetime.start.p0i8(i64 4, i8* nonnull %3) #4
  %4 = getelementptr inbounds [1111 x i8], [1111 x i8]* %2, i64 0, i64 0
  call void @llvm.lifetime.start.p0i8(i64 1111, i8* nonnull %4) #4
  %5 = call i32 (i8*, ...) @__isoc99_scanf(i8* getelementptr inbounds ([3 x i8], [3 x i8]* @.str, i64 0, i64 0), i32* nonnull %1)
  %6 = load i32, i32* %1, align 4, !tbaa !5
  %7 = icmp sgt i32 %6, 0
  br i1 %7, label %8, label %32

8:                                                ; preds = %0, %27
  %9 = phi i8 [ %14, %27 ], [ undef, %0 ]
  %10 = phi i32 [ %29, %27 ], [ 0, %0 ]
  %11 = call i32 (i8*, ...) @__isoc99_scanf(i8* getelementptr inbounds ([3 x i8], [3 x i8]* @.str.1, i64 0, i64 0), i8* nonnull %4)
  br label %12

12:                                               ; preds = %18, %8
  %13 = phi i64 [ %26, %18 ], [ 0, %8 ]
  %14 = phi i8 [ %25, %18 ], [ %9, %8 ]
  %15 = getelementptr inbounds [1111 x i8], [1111 x i8]* %2, i64 0, i64 %13
  %16 = load i8, i8* %15, align 1, !tbaa !9
  switch i8 %16, label %18 [
    i8 0, label %27
    i8 65, label %17
  ]

17:                                               ; preds = %12
  br label %18

18:                                               ; preds = %12, %17
  %19 = phi i8 [ 84, %17 ], [ %14, %12 ]
  %20 = icmp eq i8 %16, 84
  %21 = select i1 %20, i8 65, i8 %19
  %22 = icmp eq i8 %16, 67
  %23 = select i1 %22, i8 71, i8 %21
  %24 = icmp eq i8 %16, 71
  %25 = select i1 %24, i8 67, i8 %23
  store i8 %25, i8* %15, align 1, !tbaa !9
  %26 = add nuw i64 %13, 1
  br label %12, !llvm.loop !10

27:                                               ; preds = %12
  %28 = call i32 @puts(i8* nonnull %4)
  %29 = add nuw nsw i32 %10, 1
  %30 = load i32, i32* %1, align 4, !tbaa !5
  %31 = icmp slt i32 %29, %30
  br i1 %31, label %8, label %32, !llvm.loop !12

32:                                               ; preds = %27, %0
  call void @llvm.lifetime.end.p0i8(i64 1111, i8* nonnull %4) #4
  call void @llvm.lifetime.end.p0i8(i64 4, i8* nonnull %3) #4
  ret i32 0
}

; Function Attrs: argmemonly mustprogress nofree nosync nounwind willreturn
declare void @llvm.lifetime.start.p0i8(i64 immarg, i8* nocapture) #1

; Function Attrs: nofree nounwind
declare noundef i32 @__isoc99_scanf(i8* nocapture noundef readonly, ...) local_unnamed_addr #2

; Function Attrs: argmemonly mustprogress nofree nosync nounwind willreturn
declare void @llvm.lifetime.end.p0i8(i64 immarg, i8* nocapture) #1

; Function Attrs: nofree nounwind
declare noundef i32 @puts(i8* nocapture noundef readonly) local_unnamed_addr #3


!llvm.module.flags = !{!0, !1, !2, !3}
!llvm.ident = !{!4}

!0 = !{i32 1, !"wchar_size", i32 4}
!1 = !{i32 7, !"PIC Level", i32 2}
!2 = !{i32 7, !"PIE Level", i32 2}
!3 = !{i32 7, !"uwtable", i32 1}
!4 = !{!"clang version 13.0.0"}
!5 = !{!6, !6, i64 0}
!6 = !{!"int", !7, i64 0}
!7 = !{!"omnipotent char", !8, i64 0}
!8 = !{!"Simple C/C++ TBAA"}
!9 = !{!7, !7, i64 0}
!10 = distinct !{!10, !11}
!11 = !{!"llvm.loop.mustprogress"}
!12 = distinct !{!12, !11}
